; ModuleID = '22/885.c'
source_filename = "22/885.c"
target datalayout = "e-m:e-p270:32:32-p271:32:32-p272:64:64-i64:64-f80:128-n8:16:32:64-S128"
target triple = "x86_64-pc-linux-gnu"

@.str = private unnamed_addr constant [5 x i8] c"%d%c\00", align 1
@.str.1 = private unnamed_addr constant [4 x i8] c"No\0A\00", align 1
@.str.2 = private unnamed_addr constant [3 x i8] c"%d\00", align 1

; Function Attrs: noinline nounwind uwtable
define dso_local i32 @main() #0 {
  %1 = alloca i32, align 4
  %2 = alloca i32, align 4
  %3 = alloca i32, align 4
  %4 = alloca i32, align 4
  %5 = alloca i32, align 4
  %6 = alloca i32, align 4
  %7 = alloca i32, align 4
  %8 = alloca i8, align 1
  store i32 0, i32* %1, align 4
  store i32 0, i32* %2, align 4
  store i32 0, i32* %3, align 4
  store i32 0, i32* %7, align 4
  %9 = call i32 (i8*, ...) @__isoc99_scanf(i8* getelementptr inbounds ([5 x i8], [5 x i8]* @.str, i64 0, i64 0), i32* %6, i8* %8)
  br label %10

10:                                               ; preds = %40, %0
  %11 = load i8, i8* %8, align 1
  %12 = sext i8 %11 to i32
  %13 = icmp eq i32 %12, 44
  br i1 %13, label %14, label %41

14:                                               ; preds = %10
  %15 = load i32, i32* %2, align 4
  %16 = add nsw i32 %15, 1
  store i32 %16, i32* %2, align 4
  %17 = call i32 (i8*, ...) @__isoc99_scanf(i8* getelementptr inbounds ([5 x i8], [5 x i8]* @.str, i64 0, i64 0), i32* %4, i8* %8)
  %18 = load i32, i32* %4, align 4
  %19 = load i32, i32* %6, align 4
  %20 = icmp sge i32 %18, %19
  br i1 %20, label %21, label %33

21:                                               ; preds = %14
  %22 = load i32, i32* %4, align 4
  %23 = load i32, i32* %6, align 4
  %24 = icmp eq i32 %22, %23
  br i1 %24, label %25, label %28

25:                                               ; preds = %21
  %26 = load i32, i32* %3, align 4
  %27 = add nsw i32 %26, 1
  store i32 %27, i32* %3, align 4
  br label %32

28:                                               ; preds = %21
  %29 = load i32, i32* %6, align 4
  store i32 %29, i32* %5, align 4
  %30 = load i32, i32* %4, align 4
  store i32 %30, i32* %6, align 4
  %31 = load i32, i32* %5, align 4
  store i32 %31, i32* %7, align 4
  br label %32

32:                                               ; preds = %28, %25
  br label %40

33:                                               ; preds = %14
  %34 = load i32, i32* %4, align 4
  %35 = load i32, i32* %7, align 4
  %36 = icmp sgt i32 %34, %35
  br i1 %36, label %37, label %39

37:                                               ; preds = %33
  %38 = load i32, i32* %4, align 4
  store i32 %38, i32* %7, align 4
  br label %39

39:                                               ; preds = %37, %33
  br label %40

40:                                               ; preds = %39, %32
  br label %10

41:                                               ; preds = %10
  %42 = load i32, i32* %2, align 4
  %43 = load i32, i32* %3, align 4
  %44 = icmp eq i32 %42, %43
  br i1 %44, label %48, label %45

45:                                               ; preds = %41
  %46 = load i32, i32* %2, align 4
  %47 = icmp eq i32 %46, 0
  br i1 %47, label %48, label %50

48:                                               ; preds = %45, %41
  %49 = call i32 (i8*, ...) @printf(i8* getelementptr inbounds ([4 x i8], [4 x i8]* @.str.1, i64 0, i64 0))
  br label %53

50:                                               ; preds = %45
  %51 = load i32, i32* %7, align 4
  %52 = call i32 (i8*, ...) @printf(i8* getelementptr inbounds ([3 x i8], [3 x i8]* @.str.2, i64 0, i64 0), i32 %51)
  br label %53

53:                                               ; preds = %50, %48
  ret i32 0
}

declare dso_local i32 @__isoc99_scanf(i8*, ...) #1

declare dso_local i32 @printf(i8*, ...) #1


!llvm.module.flags = !{!0}
!llvm.ident = !{!1}

!0 = !{i32 1, !"wchar_size", i32 4}
!1 = !{!"clang version 10.0.0-4ubuntu1 "}
