; ModuleID = 'source-C-CXX/21/885.c'
source_filename = "source-C-CXX/21/885.c"
target datalayout = "e-m:e-p270:32:32-p271:32:32-p272:64:64-i64:64-f80:128-n8:16:32:64-S128"
target triple = "x86_64-pc-linux-gnu"

@.str = private unnamed_addr constant [5 x i8] c"%d%c\00", align 1
@.str.2 = private unnamed_addr constant [3 x i8] c"%d\00", align 1
@str = private unnamed_addr constant [3 x i8] c"No\00", align 1

; Function Attrs: nofree nounwind sspstrong uwtable
define dso_local i32 @main() local_unnamed_addr #0 {
  %1 = alloca i32, align 4
  %2 = alloca i32, align 4
  %3 = alloca i8, align 1
  %4 = bitcast i32* %1 to i8*
  call void @llvm.lifetime.start.p0i8(i64 4, i8* nonnull %4) #4
  %5 = bitcast i32* %2 to i8*
  call void @llvm.lifetime.start.p0i8(i64 4, i8* nonnull %5) #4
  call void @llvm.lifetime.start.p0i8(i64 1, i8* nonnull %3) #4
  %6 = call i32 (i8*, ...) @__isoc99_scanf(i8* getelementptr inbounds ([5 x i8], [5 x i8]* @.str, i64 0, i64 0), i32* nonnull %2, i8* nonnull %3)
  %7 = load i8, i8* %3, align 1, !tbaa !5
  %8 = icmp eq i8 %7, 44
  br i1 %8, label %9, label %33

9:                                                ; preds = %0, %26
  %10 = phi i32 [ %28, %26 ], [ 0, %0 ]
  %11 = phi i32 [ %13, %26 ], [ 0, %0 ]
  %12 = phi i32 [ %27, %26 ], [ 0, %0 ]
  %13 = add nuw nsw i32 %11, 1
  %14 = call i32 (i8*, ...) @__isoc99_scanf(i8* getelementptr inbounds ([5 x i8], [5 x i8]* @.str, i64 0, i64 0), i32* nonnull %1, i8* nonnull %3)
  %15 = load i32, i32* %1, align 4, !tbaa !8
  %16 = load i32, i32* %2, align 4, !tbaa !8
  %17 = icmp slt i32 %15, %16
  br i1 %17, label %23, label %18

18:                                               ; preds = %9
  %19 = icmp eq i32 %15, %16
  br i1 %19, label %20, label %22

20:                                               ; preds = %18
  %21 = add nsw i32 %12, 1
  br label %26

22:                                               ; preds = %18
  store i32 %15, i32* %2, align 4, !tbaa !8
  br label %26

23:                                               ; preds = %9
  %24 = icmp sgt i32 %15, %10
  %25 = select i1 %24, i32 %15, i32 %10
  br label %26

26:                                               ; preds = %23, %20, %22
  %27 = phi i32 [ %21, %20 ], [ %12, %22 ], [ %12, %23 ]
  %28 = phi i32 [ %10, %20 ], [ %16, %22 ], [ %25, %23 ]
  %29 = load i8, i8* %3, align 1, !tbaa !5
  %30 = icmp eq i8 %29, 44
  br i1 %30, label %9, label %31, !llvm.loop !10

31:                                               ; preds = %26
  %32 = icmp eq i32 %13, %27
  br i1 %32, label %33, label %35

33:                                               ; preds = %0, %31
  %34 = call i32 @puts(i8* nonnull dereferenceable(1) getelementptr inbounds ([3 x i8], [3 x i8]* @str, i64 0, i64 0))
  br label %37

35:                                               ; preds = %31
  %36 = call i32 (i8*, ...) @printf(i8* nonnull dereferenceable(1) getelementptr inbounds ([3 x i8], [3 x i8]* @.str.2, i64 0, i64 0), i32 %28)
  br label %37

37:                                               ; preds = %35, %33
  call void @llvm.lifetime.end.p0i8(i64 1, i8* nonnull %3) #4
  call void @llvm.lifetime.end.p0i8(i64 4, i8* nonnull %5) #4
  call void @llvm.lifetime.end.p0i8(i64 4, i8* nonnull %4) #4
  ret i32 0
}

; Function Attrs: argmemonly mustprogress nofree nosync nounwind willreturn
declare void @llvm.lifetime.start.p0i8(i64 immarg, i8* nocapture) #1

; Function Attrs: nofree nounwind
declare noundef i32 @__isoc99_scanf(i8* nocapture noundef readonly, ...) local_unnamed_addr #2

; Function Attrs: nofree nounwind
declare noundef i32 @printf(i8* nocapture noundef readonly, ...) local_unnamed_addr #2

; Function Attrs: argmemonly mustprogress nofree nosync nounwind willreturn
declare void @llvm.lifetime.end.p0i8(i64 immarg, i8* nocapture) #1

; Function Attrs: nofree nounwind
declare noundef i32 @puts(i8* nocapture noundef readonly) local_unnamed_addr #3


!llvm.module.flags = !{!0, !1, !2, !3}
!llvm.ident = !{!4}

!0 = !{i32 1, !"wchar_size", i32 4}
!1 = !{i32 7, !"PIC Level", i32 2}
!2 = !{i32 7, !"PIE Level", i32 2}
!3 = !{i32 7, !"uwtable", i32 1}
!4 = !{!"clang version 13.0.0"}
!5 = !{!6, !6, i64 0}
!6 = !{!"omnipotent char", !7, i64 0}
!7 = !{!"Simple C/C++ TBAA"}
!8 = !{!9, !9, i64 0}
!9 = !{!"int", !6, i64 0}
!10 = distinct !{!10, !11}
!11 = !{!"llvm.loop.mustprogress"}
